target datalayout = "e-m:e-p270:32:32-p271:32:32-p272:64:64-i64:64-i128:128-f80:128-n8:16:32:64-S128"
target triple = "x86_64-pc-linux-gnu"

; Function Attrs: mustprogress uwtable
define internal noundef zeroext i8 @_ZN6icu_77L10getCharCatEi(i32 noundef %0) #0 {
  %2 = alloca i8, align 1
  %3 = alloca i32, align 4
  %4 = alloca i8, align 1
  %5 = alloca i32, align 4
  store i32 %0, ptr %3, align 4, !tbaa !3
  call void @llvm.lifetime.start.p0(i64 1, ptr %4) #12
  %6 = load i32, ptr %3, align 4, !tbaa !3
  %7 = icmp sge i32 %6, 64976
  br i1 %7, label %8, label %19

8:                                                ; preds = %1
  %9 = load i32, ptr %3, align 4, !tbaa !3
  %10 = icmp sle i32 %9, 65007
  br i1 %10, label %15, label %11

11:                                               ; preds = %8
  %12 = load i32, ptr %3, align 4, !tbaa !3
  %13 = and i32 %12, 65534
  %14 = icmp eq i32 %13, 65534
  br i1 %14, label %15, label %19

15:                                               ; preds = %11, %8
  %16 = load i32, ptr %3, align 4, !tbaa !3
  %17 = icmp sle i32 %16, 1114111
  br i1 %17, label %18, label %19

18:                                               ; preds = %15
  store i8 30, ptr %2, align 1
  store i32 1, ptr %5, align 4
  br label %32

19:                                               ; preds = %15, %11, %1
  %20 = load i32, ptr %3, align 4, !tbaa !3
  %21 = call signext i8 @u_charType_77(i32 noundef %20)
  store i8 %21, ptr %4, align 1, !tbaa !27
  %22 = zext i8 %21 to i32
  %23 = icmp eq i32 %22, 18
  br i1 %23, label %24, label %30

24:                                               ; preds = %19
  %25 = load i32, ptr %3, align 4, !tbaa !3
  %26 = and i32 %25, -1024
  %27 = icmp eq i32 %26, 55296
  %28 = select i1 %27, i32 31, i32 32
  %29 = trunc i32 %28 to i8
  store i8 %29, ptr %4, align 1, !tbaa !27
  br label %30

30:                                               ; preds = %24, %19
  %31 = load i8, ptr %4, align 1, !tbaa !27
  store i8 %31, ptr %2, align 1
  store i32 1, ptr %5, align 4
  br label %32

32:                                               ; preds = %30, %18
  call void @llvm.lifetime.end.p0(i64 1, ptr %4) #12
  %33 = load i8, ptr %2, align 1
  ret i8 %33
}