; Function Attrs: mustprogress uwtable
define internal fastcc noundef zeroext i8 @_ZN6icu_77L10getCharCatEi(i32 noundef %0) unnamed_addr #0 {
  %2 = icmp sgt i32 %0, 64975
  br i1 %2, label %3, label %9

3:                                                ; preds = %1
  %4 = icmp samesign ult i32 %0, 65008
  br i1 %4, label %15, label %5

5:                                                ; preds = %3
  %6 = and i32 %0, 65534
  %7 = icmp eq i32 %6, 65534
  %8 = icmp samesign ult i32 %0, 1114112
  %or.cond = and i1 %8, %7
  br i1 %or.cond, label %15, label %9

9:                                                ; preds = %5, %1
  %10 = tail call signext i8 @u_charType_77(i32 noundef %0)
  %11 = icmp eq i8 %10, 18
  %12 = and i32 %0, -1024
  %13 = icmp eq i32 %12, 55296
  %14 = select i1 %13, i8 31, i8 32
  %.0 = select i1 %11, i8 %14, i8 %10
  br label %15

15:                                               ; preds = %5, %3, %9
  %.010 = phi i8 [ %.0, %9 ], [ 30, %3 ], [ 30, %5 ]
  ret i8 %.010
}